; Function Attrs: nounwind uwtable
define internal void @_control_import_job_cleanup(ptr noundef captures(none) %0) #0 {
  %2 = getelementptr inbounds nuw i8, ptr %0, i64 16
  %3 = load ptr, ptr %2, align 8, !tbaa !52
  %4 = load ptr, ptr %3, align 8, !tbaa !205
  %.not = icmp eq ptr %4, null
  br i1 %.not, label %6, label %5

5:                                                ; preds = %1
  tail call void @dt_import_session_destroy(ptr noundef nonnull %4) #17
  br label %6

6:                                                ; preds = %5, %1
  tail call void @free(ptr noundef nonnull %3) #17
  %.013 = load ptr, ptr %0, align 8, !tbaa !176
  %.not1214 = icmp eq ptr %.013, null
  br i1 %.not1214, label %._crit_edge, label %.lr.ph

._crit_edge.loopexit:                             ; preds = %.lr.ph
  %.pre = load ptr, ptr %0, align 8, !tbaa !50
  br label %._crit_edge

._crit_edge:                                      ; preds = %._crit_edge.loopexit, %6
  %7 = phi ptr [ %.pre, %._crit_edge.loopexit ], [ null, %6 ]
  tail call void @g_list_free(ptr noundef %7) #17
  store ptr null, ptr %0, align 8, !tbaa !50
  %8 = getelementptr inbounds nuw i8, ptr %0, i64 24
  %9 = load i32, ptr %8, align 8, !tbaa !48
  %.not.i = icmp eq i32 %9, 0
  br i1 %.not.i, label %dt_control_image_enumerator_cleanup.exit, label %10

10:                                               ; preds = %._crit_edge
  tail call void @g_main_context_invoke(ptr noundef null, ptr noundef nonnull @_cursor_clear_busy, ptr noundef null) #17
  br label %dt_control_image_enumerator_cleanup.exit

dt_control_image_enumerator_cleanup.exit:         ; preds = %._crit_edge, %10
  tail call void @free(ptr noundef nonnull %0) #17
  ret void

.lr.ph:                                           ; preds = %6, %.lr.ph
  %.015 = phi ptr [ %.0, %.lr.ph ], [ %.013, %6 ]
  %11 = load ptr, ptr %.015, align 8, !tbaa !61
  tail call void @g_free(ptr noundef %11) #17
  %12 = getelementptr inbounds nuw i8, ptr %.015, i64 8
  %.0 = load ptr, ptr %12, align 8, !tbaa !176
  %.not12 = icmp eq ptr %.0, null
  br i1 %.not12, label %._crit_edge.loopexit, label %.lr.ph
}